(lp0
F0.245
aF0.2419
aF0.2388
aF0.2358
aF0.2334
aF0.2304
aF0.2275
aF0.2248
aF0.2228
aF0.2203
aF0.2183
aF0.216
aF0.2146
aF0.2126
aF0.2109
aF0.2078
aF0.207
aF0.205
aF0.2035
aF0.2017
aF0.1999
aF0.1981
aF0.1964
aF0.1946
aF0.193
aF0.1913
aF0.19
aF0.1884
aF0.1871
aF0.1857
aF0.1847
aF0.1848
aF0.1837
aF0.1825
aF0.1814
aF0.1805
aF0.1795
aF0.1783
aF0.1771
aF0.1759
aF0.175
aF0.1739
aF0.173
aF0.172
aF0.1787
aF0.1777
aF0.1767
aF0.1758
aF0.1751
aF0.1742
aF0.1734
aF0.1725
aF0.1718
aF0.1711
aF0.1705
aF0.1696
aF0.1688
aF0.1681
aF0.1676
aF0.1668
aF0.1661
aF0.1652
aF0.1648
aF0.1641
aF0.1635
aF0.1628
aF0.1621
aF0.1613
aF0.1606
aF0.1599
aF0.1593
aF0.1586
aF0.1579
aF0.1571
aF0.1564
aF0.1557
aF0.155
aF0.1544
aF0.1537
aF0.153
aF0.154
aF0.1721
aF0.1714
aF0.1708
aF0.1702
aF0.1696
aF0.1689
aF0.1686
aF0.1684
aF0.1679
aF0.1674
aF0.1667
aF0.1663
aF0.1658
aF0.1655
aF0.1651
aF0.1645
aF0.164
aF0.1635
aF0.1629
aF0.1624
aF0.1618
aF0.1614
aF0.1609
aF0.1604
aF0.1598
aF0.1594
aF0.1589
aF0.1574
aF0.1579
aF0.1575
aF0.157
aF0.1565
aF0.1561
aF0.1558
aF0.1553
aF0.1547
aF0.1543
aF0.1538
aF0.1533
aF0.1529
aF0.1524
aF0.1519
aF0.1516
aF0.1512
aF0.1507
aF0.1503
aF0.1498
aF0.1494
aF0.149
aF0.1486
aF0.1482
aF0.1478
aF0.1473
aF0.1469
aF0.1465
aF0.1461
aF0.1458
aF0.1455
aF0.1451
aF0.1447
aF0.1443
aF0.1439
aF0.1435
aF0.1431
aF0.1429
aF0.1427
aF0.1423
aF0.1421
aF0.1418
aF0.1415
aF0.1413
aF0.141
aF0.1406
aF0.1403
aF0.1401
aF0.1398
aF0.1396
aF0.1392
aF0.1388
aF0.1386
aF0.1394
aF0.1391
aF0.1388
aF0.1384
aF0.1381
aF0.1407
aF0.1404
aF0.1402
aF0.1399
aF0.1385
aF0.1393
aF0.139
aF0.1387
aF0.1386
aF0.1383
aF0.1496
aF0.1496
aF0.1492
aF0.1489
aF0.1485
aF0.1482
aF0.148
aF0.1477
aF0.1474
aF0.1471
aF0.1468
aF0.1558
aF0.1554
aF0.1553
aF0.155
aF0.1546
aF0.1544
aF0.154
aF0.1537
aF0.1534
aF0.1531
aF0.1528
aF0.1527
aF0.1527
aF0.1524
aF0.1521
aF0.152
aF0.1517
aF0.1517
aF0.1514
aF0.1511
aF0.1508
aF0.1505
aF0.1503
aF0.15
aF0.1497
aF0.1496
aF0.1493
aF0.1491
aF0.1488
aF0.1486
aF0.1485
aF0.1482
aF0.1479
aF0.1477
aF0.1475
aF0.1474
aF0.1471
aF0.147
aF0.1467
aF0.1465
aF0.1462
aF0.1488
aF0.1486
aF0.1488
aF0.1484
aF0.1488
aF0.1486
aF0.1483
aF0.1481
aF0.1479
aF0.1476
aF0.1473
aF0.1471
aF0.1468
aF0.1465
aF0.1464
aF0.1461
aF0.1459
aF0.1456
aF0.1453
aF0.1451
aF0.1449
aF0.1447
aF0.1444
aF0.1442
aF0.1439
aF0.1437
aF0.1436
aF0.1434
aF0.1432
aF0.1429
aF0.1427
aF0.1424
aF0.1422
aF0.142
aF0.1417
aF0.1415
aF0.1413
aF0.1411
aF0.141
aF0.1408
aF0.1406
aF0.1405
aF0.1403
aF0.1401
aF0.1399
aF0.1396
aF0.1395
aF0.1393
aF0.1391
aF0.1389
aF0.1387
aF0.1385
aF0.1383
aF0.1381
aF0.1379
aF0.1377
aF0.1375
aF0.1373
aF0.1371
aF0.1369
aF0.1367
aF0.1365
aF0.1365
aF0.1404
aF0.1422
aF0.1446
aF0.1445
aF0.1443
aF0.1441
aF0.1439
aF0.1437
aF0.1435
aF0.1433
aF0.1431
aF0.143
aF0.1428
aF0.1426
aF0.1424
aF0.1422
aF0.142
aF0.1418
aF0.1416
aF0.1414
aF0.1412
aF0.1411
aF0.1409
aF0.1408
aF0.1406
aF0.1404
aF0.1402
aF0.14
aF0.1398
aF0.1396
aF0.1394
aF0.1393
aF0.1391
aF0.1389
aF0.1387
aF0.1438
aF0.1442
aF0.144
aF0.1439
aF0.1437
aF0.1437
aF0.1435
aF0.1435
aF0.1435
aF0.1433
aF0.1431
aF0.1429
aF0.1427
aF0.1426
aF0.1424
aF0.1422
aF0.1421
aF0.1424
aF0.1423
aF0.1421
aF0.142
aF0.1419
aF0.1417
aF0.1415
aF0.1413
aF0.1412
aF0.141
aF0.1408
aF0.1407
aF0.1405
aF0.1403
aF0.1402
aF0.1403
aF0.1401
aF0.1402
aF0.1396
aF0.1399
aF0.14
aF0.1399
aF0.1398
aF0.1396
aF0.1394
aF0.1393
aF0.1393
aF0.1391
aF0.139
aF0.139
aF0.1384
aF0.1387
aF0.1385
aF0.1383
aF0.1382
aF0.1381
aF0.138
aF0.1378
aF0.1377
aF0.1375
aF0.1374
aF0.1372
aF0.137
aF0.1369
aF0.1367
aF0.1366
aF0.1365
aF0.1371
aF0.137
aF0.1394
aF0.1392
aF0.1391
aF0.139
aF0.1389
aF0.1388
aF0.1386
aF0.1385
aF0.1384
aF0.1383
aF0.1381
aF0.138
aF0.1379
aF0.1377
aF0.1376
aF0.1374
aF0.1373
aF0.1367
aF0.137
aF0.1369
aF0.1367
aF0.1366
aF0.1365
aF0.1363
aF0.1362
aF0.136
aF0.1359
aF0.1358
aF0.1358
aF0.1355
aF0.1358
aF0.1357
aF0.1355
aF0.1354
aF0.1353
aF0.1351
aF0.1351
aF0.135
aF0.1354
aF0.1354
aF0.1353
aF0.1347
aF0.1351
aF0.1352
aF0.1352
aF0.1351
aF0.1351
aF0.1349
aF0.1353
aF0.1356
aF0.1355
aF0.1356
aF0.1358
aF0.1353
aF0.1356
aF0.1354
aF0.1353
aF0.1352
aF0.1351
aF0.1349
aF0.1349
aF0.1348
aF0.1346
aF0.1345
aF0.1344
aF0.1339
aF0.1342
aF0.1341
aF0.1339
aF0.1338
aF0.1337
aF0.1336
aF0.1334
aF0.1333
aF0.1332
aF0.1331
aF0.133
aF0.1325
aF0.1328
aF0.1327
aF0.1326
aF0.1324
aF0.1323
aF0.1322
aF0.1321
aF0.132
aF0.1319
aF0.1318
aF0.1317
aF0.1311
aF0.1315
aF0.1314
aF0.1312
aF0.1311
aF0.1311
aF0.131
aF0.1309
aF0.1308
aF0.1307
aF0.1306
aF0.1305
aF0.1299
aF0.1302
aF0.1302
aF0.1304
aF0.1303
aF0.1301
aF0.13
aF0.1307
aF0.1306
aF0.1304
aF0.1303
aF0.1303
aF0.1301
aF0.13
aF0.1311
aF0.131
aF0.1309
aF0.1308
aF0.1307
aF0.1307
aF0.1306
aF0.1305
aF0.1305
aF0.1304
aF0.13
aF0.1302
aF0.13
aF0.1299
aF0.1298
aF0.1298
aF0.1297
aF0.1296
aF0.1294
aF0.1293
aF0.1292
aF0.1291
aF0.1287
aF0.1289
aF0.1288
aF0.1287
aF0.1287
aF0.1287
aF0.1286
aF0.1285
aF0.1284
aF0.1283
aF0.1282
aF0.1283
aF0.1286
aF0.1285
aF0.1284
aF0.1283
aF0.1282
aF0.1281
aF0.128
aF0.1279
aF0.1278
aF0.1278
aF0.1276
aF0.1276
aF0.1275
aF0.1274
aF0.1273
aF0.1272
aF0.1271
aF0.1272
aF0.1271
aF0.127
aF0.1269
aF0.1268
aF0.1268
aF0.1267
aF0.1266
aF0.1265
aF0.1264
aF0.1264
aF0.1263
aF0.1262
aF0.1261
aF0.126
aF0.126
aF0.126
aF0.1259
aF0.1258
aF0.1253
aF0.1256
aF0.1255
aF0.1254
aF0.1253
aF0.1252
aF0.1252
aF0.1251
aF0.125
aF0.1281
aF0.128
aF0.1279
aF0.1278
aF0.1277
aF0.1276
aF0.1275
aF0.1274
aF0.1273
aF0.1273
aF0.1272
aF0.1271
aF0.127
aF0.127
aF0.1269
aF0.1265
aF0.1268
aF0.1268
aF0.1272
aF0.1271
aF0.1271
aF0.127
aF0.127
aF0.1269
aF0.1268
aF0.1267
aF0.1267
aF0.1263
aF0.1266
aF0.1265
aF0.1265
aF0.1264
aF0.1264
aF0.1263
aF0.1263
aF0.1262
aF0.1261
aF0.1261
aF0.126
aF0.126
aF0.1259
aF0.1258
aF0.1257
aF0.1256
aF0.1256
aF0.1255
aF0.1254
aF0.1254
aF0.1253
aF0.1252
aF0.1252
aF0.1251
aF0.125
aF0.1251
aF0.125
aF0.1249
aF0.1248
aF0.1248
aF0.1247
aF0.1246
aF0.1245
aF0.1245
aF0.1244
aF0.124
aF0.1243
aF0.1242
aF0.1241
aF0.1241
aF0.124
aF0.124
aF0.1239
aF0.1239
aF0.1238
aF0.1238
aF0.1237
aF0.1233
aF0.1236
aF0.1235
aF0.1234
aF0.1234
aF0.1233
aF0.1232
aF0.1232
aF0.1231
aF0.1231
aF0.123
aF0.123
aF0.1225
aF0.1228
aF0.1227
aF0.1226
aF0.1225
aF0.1225
aF0.1224
aF0.1223
aF0.1223
aF0.1222
aF0.1221
aF0.122
aF0.1216
aF0.122
aF0.1219
aF0.1219
aF0.1219
aF0.1218
aF0.1218
aF0.1217
aF0.1216
aF0.1216
aF0.1215
aF0.1215
aF0.1211
aF0.1213
aF0.1213
aF0.1212
aF0.1212
aF0.1211
aF0.1211
aF0.121
aF0.1209
aF0.1208
aF0.1208
aF0.1208
aF0.1204
aF0.1206
aF0.1206
aF0.1205
aF0.1204
aF0.1203
aF0.1203
aF0.1202
aF0.1201
aF0.1201
aF0.1201
aF0.1202
aF0.1202
aF0.1207
aF0.1207
aF0.1206
aF0.1206
aF0.1205
aF0.1204
aF0.1203
aF0.1203
aF0.1202
aF0.1201
aF0.1201
aF0.1201
aF0.12
aF0.1199
aF0.1199
aF0.1198
aF0.1197
aF0.1197
aF0.1196
aF0.1195
aF0.1195
aF0.1195
aF0.1194
aF0.1191
aF0.1193
aF0.1192
aF0.1192
aF0.1191
aF0.1191
aF0.119
aF0.1189
aF0.1189
aF0.1188
aF0.1188
aF0.1187
aF0.1183
aF0.1186
aF0.1185
aF0.1185
aF0.1184
aF0.1183
aF0.1183
aF0.1183
aF0.1183
aF0.1183
aF0.1183
aF0.1182
aF0.1181
aF0.1183
aF0.1182
aF0.1182
aF0.1181
aF0.1187
aF0.1187
aF0.1186
aF0.1186
aF0.1186
aF0.1186
aF0.1185
aF0.1184
aF0.1184
aF0.1183
aF0.1183
aF0.1182
aF0.1181
aF0.1181
aF0.118
aF0.1179
aF0.1179
aF0.1189
aF0.1192
aF0.1192
aF0.1192
aF0.1192
aF0.1191
aF0.1191
aF0.119
aF0.1189
aF0.1189
aF0.1188
aF0.1188
aF0.1187
aF0.1186
aF0.1183
aF0.1185
aF0.1184
aF0.1184
aF0.1185
aF0.1186
aF0.1185
aF0.1186
aF0.1185
aF0.1184
aF0.1184
aF0.1183
aF0.118
aF0.1182
aF0.1186
aF0.1186
aF0.1185
aF0.1185
aF0.1184
aF0.1184
aF0.1183
aF0.1182
aF0.1182
aF0.1181
aF0.1178
aF0.1185
aF0.1184
aF0.1183
aF0.1183
aF0.1183
aF0.1182
aF0.1182
aF0.1181
aF0.1181
aF0.118
aF0.1179
aF0.1175
aF0.1178
aF0.1178
aF0.1177
aF0.1177
aF0.1176
aF0.1176
aF0.1175
aF0.1175
aF0.1174
aF0.1174
aF0.1174
aF0.117
aF0.1173
aF0.1173
aF0.1172
aF0.1171
aF0.1171
aF0.117
aF0.1169
aF0.1197
aF0.1196
aF0.1196
aF0.1195
aF0.1192
aF0.1194
aF0.1193
aF0.1193
aF0.1192
aF0.1192
aF0.1191
aF0.119
aF0.119
aF0.1189
aF0.1189
aF0.1188
aF0.1184
aF0.1188
aF0.1187
aF0.1187
aF0.1186
aF0.1186
aF0.1185
aF0.1184
aF0.1184
aF0.1186
aF0.1209
aF0.1231
aF0.1237
aF0.1246
aF0.1246
aF0.1245
aF0.1245
aF0.1244
aF0.1244
aF0.1243
aF0.1242
aF0.1242
aF0.1241
aF0.1241
aF0.1237
aF0.1239
aF0.1239
aF0.1238
aF0.1238
aF0.1237
aF0.1237
aF0.1236
aF0.1236
aF0.1235
aF0.1234
aF0.1234
aF0.1231
aF0.1233
aF0.1232
aF0.1232
aF0.1231
aF0.123
aF0.123
aF0.1229
aF0.1229
aF0.1228
aF0.1227
aF0.1227
aF0.1225
aF0.1226
aF0.1226
aF0.1225
aF0.1225
aF0.1224
aF0.1224
aF0.1223
aF0.1223
aF0.1222
aF0.1222
aF0.1221
aF0.1219
aF0.1221
aF0.122
aF0.122
aF0.1219
aF0.1218
aF0.1218
aF0.1217
aF0.1217
aF0.1216
aF0.1216
aF0.122
aF0.1218
aF0.122
aF0.1219
aF0.1218
aF0.1218
aF0.1217
aF0.1217
aF0.1216
aF0.1216
aF0.1216
aF0.1215
aF0.1215
aF0.1212
aF0.1214
aF0.1213
aF0.1213
aF0.1212
aF0.1212
aF0.1211
aF0.121
aF0.121
aF0.1209
aF0.1209
aF0.1208
aF0.1205
aF0.1207
aF0.1207
aF0.1207
aF0.1206
aF0.1206
aF0.1205
aF0.1205
aF0.1204
aF0.1204
aF0.1203
aF0.1203
aF0.12
aF0.1202
aF0.1201
aF0.1201
aF0.12
aF0.12
aF0.1199
aF0.1199
aF0.1198
aF0.1198
aF0.1197
aF0.1197
aF0.1194
aF0.1196
aF0.1195
aF0.1195
aF0.1194
aF0.1194
aF0.1197
aF0.1197
aF0.1196
aF0.1196
aF0.1195
aF0.1198
aF0.1196
aF0.12
aF0.1202
aF0.1202
aF0.1201
aF0.1201
aF0.12
aF0.12
aF0.12
aF0.1199
aF0.1199
aF0.1198
aF0.1197
aF0.1197
aF0.1196
aF0.1196
aF0.1195
aF0.1195
aF0.1195
aF0.1194
aF0.1194
aF0.1193
aF0.1193
aF0.1192
aF0.1192
aF0.1192
aF0.1191
aF0.1194
aF0.1193
aF0.1193
aF0.1192
aF0.1192
aF0.1192
aF0.1191
aF0.1191
aF0.119
aF0.1191
aF0.119
aF0.119
aF0.1189
aF0.1189
aF0.1188
aF0.1188
aF0.1187
aF0.1187
aF0.1186
aF0.1186
aF0.1185
aF0.1185
aF0.1185
aF0.1184
aF0.1184
aF0.1184
aF0.1184
aF0.1183
aF0.1183
aF0.1182
aF0.1182
aF0.1182
aF0.1183
aF0.1182
aF0.1189
aF0.1189
aF0.1189
aF0.1188
aF0.1188
aF0.1188
aF0.1188
aF0.1188
aF0.1189
aF0.1189
aF0.1189
aF0.1188
aF0.1188
aF0.1187
aF0.1187
aF0.1187
aF0.1186
aF0.1186
aF0.1186
aF0.1185
aF0.1185
aF0.1184
aF0.1184
aF0.1184
aF0.1184
aF0.1183
aF0.1184
aF0.1183
aF0.1183
aF0.1183
aF0.1183
aF0.1183
aF0.1183
aF0.1182
aF0.1182
aF0.1181
aF0.1181
aF0.1181
aF0.1187
aF0.1187
aF0.1186
aF0.1186
aF0.1186
aF0.1185
aF0.1185
aF0.1184
aF0.1184
aF0.1183
aF0.1183
aF0.1183
aF0.1182
aF0.1182
aF0.1181
aF0.1181
aF0.118
aF0.118
aF0.1179
aF0.1179
aF0.1179
aF0.1178
aF0.1178
aF0.1177
aF0.1177
aF0.1176
aF0.1176
aF0.1176
aF0.1175
aF0.1175
aF0.1175
aF0.1175
aF0.1175
aF0.1174
aF0.1174
aF0.1173
aF0.1173
aF0.1173
aF0.1172
aF0.1172
aF0.1171
aF0.1174
aF0.1173
aF0.1173
aF0.1172
aF0.1177
aF0.1181
aF0.118
aF0.118
aF0.1179
aF0.1179
aF0.1178
aF0.1178
aF0.1177
aF0.1177
aF0.1176
aF0.1176
aF0.1176
aF0.1176
aF0.1175
aF0.1175
aF0.1174
aF0.1174
aF0.1174
aF0.1174
aF0.1173
aF0.1173
aF0.1172
aF0.1172
aF0.1172
aF0.1171
aF0.1171
aF0.117
aF0.117
aF0.117
aF0.117
aF0.117
aF0.1169
aF0.1169
aF0.1169
aF0.1168
aF0.1168
aF0.1168
aF0.1168
aF0.1167
aF0.1167
aF0.1166
aF0.1166
aF0.1165
aF0.1165
aF0.1165
aF0.1165
aF0.1164
aF0.1164
aF0.1169
aF0.117
aF0.1169
aF0.1169
aF0.1169
aF0.1168
aF0.1168
aF0.1167
aF0.1167
aF0.1167
aF0.1166
aF0.1166
aF0.1166
aF0.1165
aF0.1165
aF0.1164
aF0.1164
aF0.1164
aF0.1163
aF0.1163
aF0.1163
aF0.1162
aF0.1162
aF0.1161
aF0.1161
aF0.1161
aF0.1161
aF0.1161
aF0.116
aF0.116
aF0.1159
aF0.1159
aF0.1159
aF0.1158
aF0.1158
aF0.1157
aF0.116
aF0.116
aF0.116
aF0.1159
aF0.1159
aF0.1158
aF0.1158
aF0.1158
aF0.1157
aF0.1157
aF0.1157
aF0.1156
aF0.1156
aF0.1156
aF0.1156
aF0.1155
aF0.1155
aF0.1154
aF0.1154
aF0.1154
aF0.1153
aF0.1154
aF0.1153
aF0.1153
aF0.1152
aF0.1152
aF0.1152
aF0.1152
aF0.1151
aF0.1151
aF0.1151
aF0.115
aF0.115
aF0.115
aF0.115
aF0.1149
aF0.1149
aF0.1149
aF0.1148
aF0.1148
aF0.1147
aF0.1147
aF0.1147
aF0.1146
aF0.1146
aF0.1146
aF0.1145
aF0.1146
aF0.1146
aF0.1145
aF0.1145
aF0.1144
aF0.1144
aF0.1144
aF0.1143
aF0.1143
aF0.1143
aF0.1146
aF0.1146
aF0.1145
aF0.1145
aF0.1145
aF0.1144
aF0.1144
aF0.1144
aF0.1144
aF0.1144
aF0.1144
aF0.1144
aF0.1144
aF0.1141
aF0.1141
aF0.114
aF0.114
aF0.114
aF0.114
aF0.1139
aF0.1139
aF0.1139
aF0.1138
aF0.1138
aF0.1138
aF0.1138
aF0.1138
aF0.1138
aF0.1138
aF0.1137
aF0.1137
aF0.1137
aF0.1137
aF0.1137
aF0.1137
aF0.1137
aF0.1137
aF0.1137
aF0.1137
aF0.1137
aF0.1137
aF0.1137
aF0.1137
aF0.1137
aF0.1141
aF0.1145
aF0.1145
aF0.1088
aF0.1089
aF0.1089
aF0.1089
aF0.1086
aF0.1086
aF0.1087
aF0.1087
aF0.1087
aF0.1087
aF0.1087
aF0.1087
aF0.1086
aF0.1086
aF0.1087
aF0.1087
aF0.1087
aF0.1087
aF0.1087
aF0.1087
aF0.1087
aF0.1086
aF0.1086
aF0.1086
aF0.1086
aF0.1086
aF0.1086
aF0.1086
aF0.1086
aF0.1086
aF0.1087
aF0.1087
aF0.1086
aF0.1087
aF0.1088
aF0.1088
aF0.1088
aF0.1087
aF0.1087
aF0.1087
aF0.109
aF0.109
aF0.1089
aF0.109
aF0.1102
aF0.1102
aF0.1102
aF0.1102
aF0.1102
aF0.1095
aF0.1095
aF0.1095
aF0.1095
aF0.1095
aF0.1095
aF0.1096
aF0.1096
aF0.1095
aF0.1096
aF0.1096
aF0.1096
aF0.1096
aF0.1096
aF0.1096
aF0.1096
aF0.1096
aF0.1095
aF0.1096
aF0.1096
aF0.1096
aF0.1096
aF0.1096
aF0.1096
aF0.1096
aF0.1096
aF0.1096
aF0.1096
aF0.1096
aF0.1096
aF0.1096
aF0.1097
aF0.1097
aF0.1098
aF0.1096
aF0.1072
aF0.1073
aF0.1073
aF0.1103
aF0.1103
aF0.1103
aF0.1102
aF0.1103
aF0.1103
aF0.1103
aF0.1103
aF0.1102
aF0.1102
aF0.1101
aF0.1101
aF0.1101
aF0.1102
aF0.1101
aF0.1101
aF0.1101
aF0.1101
aF0.1101
aF0.1101
aF0.11
aF0.11
aF0.1101
aF0.1106
aF0.1106
aF0.1106
aF0.1106
aF0.1106
aF0.1106
aF0.1106
aF0.1106
aF0.1106
aF0.1106
aF0.1106
aF0.1106
aF0.1106
aF0.1106
aF0.1106
aF0.1106
aF0.1106
aF0.1106
aF0.1106
aF0.1106
aF0.1106
aF0.1106
aF0.1106
aF0.1106
aF0.1106
aF0.1106
aF0.1106
aF0.1106
aF0.1106
aF0.1106
aF0.1106
aF0.1106
aF0.1105
aF0.1106
aF0.1106
aF0.1106
aF0.1106
aF0.1106
aF0.1106
aF0.1105
aF0.1105
aF0.1105
aF0.1105
aF0.1105
aF0.1105
aF0.1104
aF0.1105
aF0.1105
aF0.1104
aF0.1103
aF0.1103
aF0.1103
aF0.1106
aF0.1104
aF0.1104
aF0.1103
aF0.1103
aF0.1104
aF0.1103
aF0.1104
aF0.1104
aF0.1104
aF0.1104
aF0.1081
aF0.1081
aF0.1082
aF0.1082
aF0.1081
aF0.1081
aF0.1082
aF0.1081
aF0.1095
aF0.1095
aF0.1075
aF0.1075
aF0.1074
aF0.1074
aF0.1074
aF0.1074
aF0.1075
aF0.1075
aF0.1077
aF0.1076
aF0.1076
aF0.1075
aF0.1076
aF0.1077
aF0.1076
aF0.1076
aF0.1076
aF0.1076
aF0.1076
aF0.1076
aF0.1076
aF0.1076
aF0.1076
aF0.1076
aF0.1076
aF0.1076
aF0.1076
aF0.1076
aF0.1076
aF0.1076
aF0.1076
aF0.1076
aF0.1076
aF0.1075
aF0.1076
aF0.1078
aF0.1078
aF0.1073
aF0.1071
aF0.1071
aF0.1071
aF0.107
aF0.107
aF0.107
aF0.107
aF0.1069
aF0.1069
aF0.1069
aF0.1069
aF0.1069
aF0.1069
aF0.107
aF0.107
aF0.107
aF0.107
aF0.107
aF0.1069
aF0.1069
aF0.1069
aF0.1069
aF0.1069
aF0.1069
aF0.1069
aF0.1069
aF0.107
aF0.107
aF0.107
aF0.1071
aF0.1071
aF0.1071
aF0.1071
aF0.107
aF0.107
aF0.107
aF0.107
aF0.107
aF0.107
aF0.107
aF0.107
aF0.107
aF0.107
aF0.107
aF0.1071
aF0.1071
aF0.1071
aF0.1071
aF0.1071
aF0.1071
aF0.1071
aF0.1071
aF0.1071
aF0.107
aF0.107
aF0.107
aF0.107
aF0.1071
aF0.1071
aF0.1059
aF0.1044
aF0.1044
aF0.1044
aF0.1044
aF0.1044
aF0.1044
aF0.1044
aF0.1044
aF0.1044
aF0.1044
aF0.1045
aF0.1044
aF0.1046
aF0.1046
aF0.1046
aF0.1047
aF0.1047
aF0.105
aF0.105
aF0.105
aF0.105
aF0.105
aF0.105
aF0.105
aF0.1051
aF0.1051
aF0.1051
aF0.1051
aF0.1051
aF0.1054
aF0.1055
aF0.1055
aF0.1038
aF0.1036
aF0.1036
aF0.1035
aF0.1035
aF0.1035
aF0.1035
aF0.1035
aF0.1035
aF0.1035
aF0.1035
aF0.1035
aF0.1035
aF0.1035
aF0.1036
aF0.1035
aF0.1036
aF0.1034
aF0.1034
aF0.1034
aF0.1034
aF0.1033
aF0.1034
aF0.1035
aF0.1035
aF0.1035
aF0.1034
aF0.1034
aF0.1035
aF0.1035
aF0.1035
aF0.1036
aF0.1035
aF0.1035
aF0.1037
aF0.1037
aF0.1038
aF0.1037
aF0.1041
aF0.1042
aF0.1042
aF0.1043
aF0.1042
aF0.1042
aF0.1042
aF0.1042
aF0.1041
aF0.1041
aF0.1041
aF0.1041
aF0.1041
aF0.1041
aF0.1041
aF0.1041
aF0.1041
aF0.1042
aF0.1042
aF0.1042
aF0.1042
aF0.1042
aF0.1043
aF0.1042
aF0.1044
aF0.1044
aF0.1041
aF0.1041
aF0.1031
aF0.1031
aF0.1031
aF0.1031
aF0.1031
aF0.1031
aF0.1031
aF0.1031
aF0.1031
aF0.103
aF0.1031
aF0.1031
aF0.1031
aF0.1031
aF0.1031
aF0.1031
aF0.1031
aF0.1031
aF0.1031
aF0.1031
aF0.1032
aF0.1032
aF0.1032
aF0.1032
aF0.1032
aF0.1032
aF0.1033
aF0.1033
aF0.1032
aF0.1031
aF0.1031
aF0.1031
aF0.1032
aF0.1032
aF0.1032
aF0.1032
aF0.1032
aF0.1032
aF0.103
aF0.1029
aF0.1028
aF0.1028
aF0.1028
aF0.1027
aF0.1027
aF0.1028
aF0.1028
aF0.1028
aF0.1028
aF0.1026
aF0.1026
aF0.1026
aF0.1024
aF0.1024
aF0.1025
aF0.1025
aF0.1026
aF0.1026
aF0.1026
aF0.1026
aF0.1025
aF0.1025
aF0.1025
aF0.1025
aF0.1025
aF0.1025
aF0.1025
aF0.1025
aF0.1025
aF0.1026
aF0.1026
aF0.1025
aF0.1026
aF0.1025
aF0.1026
aF0.1026
aF0.1025
aF0.1025
aF0.1025
aF0.1025
aF0.1025
aF0.1025
aF0.1026
aF0.1025
aF0.1025
aF0.1025
aF0.1025
aF0.1025
aF0.1025
aF0.1025
aF0.1027
aF0.1027
aF0.1027
aF0.1027
aF0.1028
aF0.1029
aF0.1029
aF0.1029
aF0.1029
aF0.1029
aF0.1029
aF0.1029
aF0.1033
aF0.1033
aF0.1031
aF0.1031
aF0.1031
aF0.1031
aF0.1028
aF0.1028
aF0.1028
aF0.1028
aF0.1028
aF0.1028
aF0.1028
aF0.1022
aF0.1022
aF0.1022
aF0.1022
aF0.1022
aF0.1022
aF0.1022
aF0.1022
aF0.1022
aF0.1022
aF0.1022
aF0.1022
aF0.1022
aF0.1022
aF0.1022
aF0.1022
aF0.1022
aF0.1022
aF0.1022
aF0.1022
aF0.1022
aF0.1022
aF0.1022
a.