(lp0
F-110.94861084336998
aF-110.94861084336998
aF-110.94861084336998
aF-110.94861084336998
aF-110.94861084336998
aF-110.94861084336998
aF-110.94861084336998
aF-110.94861084336998
aF-110.94861084336998
aF-110.94861084336998
aF-110.94861084336998
a.